target datalayout = "e-m:e-p270:32:32-p271:32:32-p272:64:64-i64:64-i128:128-f80:128-n8:16:32:64-S128"
target triple = "x86_64-pc-linux-gnu"

%struct.H5VL_dyn_op_t = type { ptr, i32 }

@H5VL_init_g = external global i8, align 1
@H5_libterm_g = external global i8, align 1
@H5VL_opt_ops_g = internal global [13 x ptr] zeroinitializer, align 16
@.str = private unnamed_addr constant [105 x i8] c"generated/home/dtcxzyw/WorkSpace/Projects/compilers/llvm-opt-benchmark/bench/hdf5/hdf5/src/H5VLdyn_ops.c\00", align 1
@H5E_VOL_g = external global i64, align 8
@__func__.H5VL__find_opt_operation = private unnamed_addr constant [25 x i8] c"H5VL__find_opt_operation\00", align 1
@H5E_NOTFOUND_g = external global i64, align 8
@.str.6 = private unnamed_addr constant [32 x i8] c"operation name isn't registered\00", align 1

; Function Attrs: nounwind uwtable
define i32 @H5VL__find_opt_operation(i32 noundef %0, ptr noundef %1, ptr noundef %2) #0 {
  %4 = alloca i32, align 4
  %5 = alloca i32, align 4
  %6 = alloca ptr, align 8
  %7 = alloca ptr, align 8
  %8 = alloca i32, align 4
  %9 = alloca i8, align 1
  %10 = alloca ptr, align 8
  %11 = alloca i32, align 4
  store i32 %0, ptr %5, align 4, !tbaa !19
  store ptr %1, ptr %6, align 8, !tbaa !21
  store ptr %2, ptr %7, align 8, !tbaa !23
  call void @llvm.lifetime.start.p0(i64 4, ptr %8) #4
  store i32 0, ptr %8, align 4, !tbaa !19
  call void @llvm.lifetime.start.p0(i64 1, ptr %9) #4
  store i8 0, ptr %9, align 1, !tbaa !3
  %12 = load i8, ptr @H5VL_init_g, align 1, !tbaa !3, !range !7, !noundef !8
  %13 = trunc i8 %12 to i1
  br i1 %13, label %18, label %14

14:                                               ; preds = %3
  %15 = load i8, ptr @H5_libterm_g, align 1, !tbaa !3, !range !7, !noundef !8
  %16 = trunc i8 %15 to i1
  %17 = xor i1 %16, true
  br label %18

18:                                               ; preds = %14, %3
  %19 = phi i1 [ true, %3 ], [ %17, %14 ]
  %20 = xor i1 %19, true
  %21 = xor i1 %20, true
  %22 = zext i1 %21 to i32
  %23 = sext i32 %22 to i64
  %24 = call i64 @llvm.expect.i64(i64 %23, i64 1)
  %25 = icmp ne i64 %24, 0
  br i1 %25, label %26, label %88

26:                                               ; preds = %18
  %27 = load i32, ptr %5, align 4, !tbaa !19
  %28 = zext i32 %27 to i64
  %29 = getelementptr inbounds nuw [13 x ptr], ptr @H5VL_opt_ops_g, i64 0, i64 %28
  %30 = load ptr, ptr %29, align 8, !tbaa !11
  %31 = icmp ne ptr %30, null
  br i1 %31, label %32, label %67

32:                                               ; preds = %26
  call void @llvm.lifetime.start.p0(i64 8, ptr %10) #4
  %33 = load i32, ptr %5, align 4, !tbaa !19
  %34 = zext i32 %33 to i64
  %35 = getelementptr inbounds nuw [13 x ptr], ptr @H5VL_opt_ops_g, i64 0, i64 %34
  %36 = load ptr, ptr %35, align 8, !tbaa !11
  %37 = load ptr, ptr %6, align 8, !tbaa !21
  %38 = call ptr @H5SL_search(ptr noundef %36, ptr noundef %37)
  store ptr %38, ptr %10, align 8, !tbaa !17
  %39 = icmp eq ptr null, %38
  br i1 %39, label %40, label %59

40:                                               ; preds = %32
  br label %41

41:                                               ; preds = %40
  br label %42

42:                                               ; preds = %41
  br label %43

43:                                               ; preds = %42
  %44 = load i64, ptr @H5E_VOL_g, align 8, !tbaa !9
  %45 = load i64, ptr @H5E_NOTFOUND_g, align 8, !tbaa !9
  %46 = call i32 (ptr, ptr, i32, i64, i64, ptr, ...) @H5E_printf_stack(ptr noundef @.str, ptr noundef @__func__.H5VL__find_opt_operation, i32 noundef 281, i64 noundef %44, i64 noundef %45, ptr noundef @.str.6)
  br label %47

47:                                               ; preds = %43
  br label %48

48:                                               ; preds = %47
  store i8 1, ptr %9, align 1, !tbaa !3
  %49 = load i8, ptr %9, align 1, !tbaa !3, !range !7, !noundef !8
  %50 = trunc i8 %49 to i1
  %51 = zext i1 %50 to i8
  store i8 %51, ptr %9, align 1, !tbaa !3
  br label %52

52:                                               ; preds = %48
  br label %53

53:                                               ; preds = %52
  br label %54

54:                                               ; preds = %53
  store i32 -1, ptr %8, align 4, !tbaa !19
  store i32 10, ptr %11, align 4
  br label %64

55:                                               ; No predecessors!
  br label %56

56:                                               ; preds = %55
  br label %57

57:                                               ; preds = %56
  br label %58

58:                                               ; preds = %57
  br label %59

59:                                               ; preds = %58, %32
  %60 = load ptr, ptr %10, align 8, !tbaa !17
  %61 = getelementptr inbounds nuw %struct.H5VL_dyn_op_t, ptr %60, i32 0, i32 1
  %62 = load i32, ptr %61, align 8, !tbaa !27
  %63 = load ptr, ptr %7, align 8, !tbaa !23
  store i32 %62, ptr %63, align 4, !tbaa !19
  store i32 0, ptr %11, align 4
  br label %64

64:                                               ; preds = %54, %59
  call void @llvm.lifetime.end.p0(i64 8, ptr %10) #4
  %65 = load i32, ptr %11, align 4
  switch i32 %65, label %90 [
    i32 0, label %66
    i32 10, label %87
  ]

66:                                               ; preds = %64
  br label %86

67:                                               ; preds = %26
  br label %68

68:                                               ; preds = %67
  br label %69

69:                                               ; preds = %68
  br label %70

70:                                               ; preds = %69
  %71 = load i64, ptr @H5E_VOL_g, align 8, !tbaa !9
  %72 = load i64, ptr @H5E_NOTFOUND_g, align 8, !tbaa !9
  %73 = call i32 (ptr, ptr, i32, i64, i64, ptr, ...) @H5E_printf_stack(ptr noundef @.str, ptr noundef @__func__.H5VL__find_opt_operation, i32 noundef 287, i64 noundef %71, i64 noundef %72, ptr noundef @.str.6)
  br label %74

74:                                               ; preds = %70
  br label %75

75:                                               ; preds = %74
  store i8 1, ptr %9, align 1, !tbaa !3
  %76 = load i8, ptr %9, align 1, !tbaa !3, !range !7, !noundef !8
  %77 = trunc i8 %76 to i1
  %78 = zext i1 %77 to i8
  store i8 %78, ptr %9, align 1, !tbaa !3
  br label %79

79:                                               ; preds = %75
  br label %80

80:                                               ; preds = %79
  br label %81

81:                                               ; preds = %80
  store i32 -1, ptr %8, align 4, !tbaa !19
  br label %87

82:                                               ; No predecessors!
  br label %83

83:                                               ; preds = %82
  br label %84

84:                                               ; preds = %83
  br label %85

85:                                               ; preds = %84
  br label %86

86:                                               ; preds = %85, %66
  br label %87

87:                                               ; preds = %86, %64, %81
  br label %88

88:                                               ; preds = %87, %18
  %89 = load i32, ptr %8, align 4, !tbaa !19
  store i32 %89, ptr %4, align 4
  store i32 1, ptr %11, align 4
  br label %90

90:                                               ; preds = %88, %64
  call void @llvm.lifetime.end.p0(i64 1, ptr %9) #4
  call void @llvm.lifetime.end.p0(i64 4, ptr %8) #4
  %91 = load i32, ptr %4, align 4
  ret i32 %91
}