; Function Attrs: nounwind uwtable
define range(i32 -1, 1) i32 @H5VL__find_opt_operation(i32 noundef %0, ptr noundef %1, ptr noundef writeonly captures(none) %2) local_unnamed_addr #0 {
  %4 = load i8, ptr @H5VL_init_g, align 1, !tbaa !3, !range !7, !noundef !8
  %5 = trunc nuw i8 %4 to i1
  %6 = load i8, ptr @H5_libterm_g, align 1, !range !7
  %7 = trunc nuw i8 %6 to i1
  %8 = xor i1 %7, true
  %9 = select i1 %5, i1 true, i1 %8
  br i1 %9, label %10, label %28, !prof !9

10:                                               ; preds = %3
  %11 = zext i32 %0 to i64
  %12 = getelementptr inbounds nuw [13 x ptr], ptr @H5VL_opt_ops_g, i64 0, i64 %11
  %13 = load ptr, ptr %12, align 8, !tbaa !10
  %.not = icmp eq ptr %13, null
  br i1 %.not, label %24, label %14

14:                                               ; preds = %10
  %15 = tail call ptr @H5SL_search(ptr noundef nonnull %13, ptr noundef %1) #2
  %16 = icmp eq ptr %15, null
  br i1 %16, label %17, label %21

17:                                               ; preds = %14
  %18 = load i64, ptr @H5E_VOL_g, align 8, !tbaa !19
  %19 = load i64, ptr @H5E_NOTFOUND_g, align 8, !tbaa !19
  %20 = tail call i32 (ptr, ptr, i32, i64, i64, ptr, ...) @H5E_printf_stack(ptr noundef nonnull @.str, ptr noundef nonnull @__func__.H5VL__find_opt_operation, i32 noundef 281, i64 noundef %18, i64 noundef %19, ptr noundef nonnull @.str.6) #2
  br label %28

21:                                               ; preds = %14
  %22 = getelementptr inbounds nuw i8, ptr %15, i64 8
  %23 = load i32, ptr %22, align 8, !tbaa !22
  store i32 %23, ptr %2, align 4, !tbaa !21
  br label %28

24:                                               ; preds = %10
  %25 = load i64, ptr @H5E_VOL_g, align 8, !tbaa !19
  %26 = load i64, ptr @H5E_NOTFOUND_g, align 8, !tbaa !19
  %27 = tail call i32 (ptr, ptr, i32, i64, i64, ptr, ...) @H5E_printf_stack(ptr noundef nonnull @.str, ptr noundef nonnull @__func__.H5VL__find_opt_operation, i32 noundef 287, i64 noundef %25, i64 noundef %26, ptr noundef nonnull @.str.6) #2
  br label %28

28:                                               ; preds = %17, %21, %3, %24
  %.09 = phi i32 [ -1, %24 ], [ 0, %3 ], [ -1, %17 ], [ 0, %21 ]
  ret i32 %.09
}